target datalayout = "e-m:e-p270:32:32-p271:32:32-p272:64:64-i64:64-i128:128-f80:128-n8:16:32:64-S128"
target triple = "x86_64-pc-linux-gnu"

%struct.AVChannelLayout = type { i32, i32, %union.anon.1, ptr }
%union.anon.1 = type { i64 }
%struct.AVRational = type { i32, i32 }
%struct.NormalizeLocal = type { i16, float, float }
%struct.AVFrame = type { [8 x ptr], [8 x i32], ptr, i32, i32, i32, i32, i32, %struct.AVRational, i64, i64, %struct.AVRational, i32, ptr, i32, i32, [8 x ptr], ptr, i32, ptr, i32, i32, i32, i32, i32, i32, i32, i64, ptr, i32, ptr, ptr, i64, i64, i64, i64, ptr, %struct.AVChannelLayout, i64 }

; Function Attrs: nounwind uwtable
define internal void @find_min_max_planar(ptr noundef %0, ptr noundef %1, ptr noundef %2, ptr noundef %3) #2 {
  %5 = alloca ptr, align 8
  %6 = alloca ptr, align 8
  %7 = alloca ptr, align 8
  %8 = alloca ptr, align 8
  %9 = alloca i32, align 4
  %10 = alloca i32, align 4
  %11 = alloca ptr, align 8
  %12 = alloca ptr, align 8
  %13 = alloca ptr, align 8
  %14 = alloca i32, align 4
  store ptr %0, ptr %5, align 8, !tbaa !22
  store ptr %1, ptr %6, align 8, !tbaa !26
  store ptr %2, ptr %7, align 8, !tbaa !82
  store ptr %3, ptr %8, align 8, !tbaa !82
  %15 = load ptr, ptr %6, align 8, !tbaa !26
  %16 = getelementptr inbounds nuw %struct.AVFrame, ptr %15, i32 0, i32 0
  %17 = getelementptr inbounds [8 x ptr], ptr %16, i64 0, i64 2
  %18 = load ptr, ptr %17, align 8, !tbaa !84
  %19 = getelementptr inbounds i8, ptr %18, i64 0
  %20 = load i8, ptr %19, align 1, !tbaa !60
  %21 = zext i8 %20 to i16
  %22 = load ptr, ptr %8, align 8, !tbaa !82
  %23 = getelementptr inbounds %struct.NormalizeLocal, ptr %22, i64 0
  %24 = getelementptr inbounds nuw %struct.NormalizeLocal, ptr %23, i32 0, i32 0
  store i16 %21, ptr %24, align 4, !tbaa !71
  %25 = load ptr, ptr %7, align 8, !tbaa !82
  %26 = getelementptr inbounds %struct.NormalizeLocal, ptr %25, i64 0
  %27 = getelementptr inbounds nuw %struct.NormalizeLocal, ptr %26, i32 0, i32 0
  store i16 %21, ptr %27, align 4, !tbaa !71
  %28 = load ptr, ptr %6, align 8, !tbaa !26
  %29 = getelementptr inbounds nuw %struct.AVFrame, ptr %28, i32 0, i32 0
  %30 = getelementptr inbounds [8 x ptr], ptr %29, i64 0, i64 0
  %31 = load ptr, ptr %30, align 8, !tbaa !84
  %32 = getelementptr inbounds i8, ptr %31, i64 0
  %33 = load i8, ptr %32, align 1, !tbaa !60
  %34 = zext i8 %33 to i16
  %35 = load ptr, ptr %8, align 8, !tbaa !82
  %36 = getelementptr inbounds %struct.NormalizeLocal, ptr %35, i64 1
  %37 = getelementptr inbounds nuw %struct.NormalizeLocal, ptr %36, i32 0, i32 0
  store i16 %34, ptr %37, align 4, !tbaa !71
  %38 = load ptr, ptr %7, align 8, !tbaa !82
  %39 = getelementptr inbounds %struct.NormalizeLocal, ptr %38, i64 1
  %40 = getelementptr inbounds nuw %struct.NormalizeLocal, ptr %39, i32 0, i32 0
  store i16 %34, ptr %40, align 4, !tbaa !71
  %41 = load ptr, ptr %6, align 8, !tbaa !26
  %42 = getelementptr inbounds nuw %struct.AVFrame, ptr %41, i32 0, i32 0
  %43 = getelementptr inbounds [8 x ptr], ptr %42, i64 0, i64 1
  %44 = load ptr, ptr %43, align 8, !tbaa !84
  %45 = getelementptr inbounds i8, ptr %44, i64 0
  %46 = load i8, ptr %45, align 1, !tbaa !60
  %47 = zext i8 %46 to i16
  %48 = load ptr, ptr %8, align 8, !tbaa !82
  %49 = getelementptr inbounds %struct.NormalizeLocal, ptr %48, i64 2
  %50 = getelementptr inbounds nuw %struct.NormalizeLocal, ptr %49, i32 0, i32 0
  store i16 %47, ptr %50, align 4, !tbaa !71
  %51 = load ptr, ptr %7, align 8, !tbaa !82
  %52 = getelementptr inbounds %struct.NormalizeLocal, ptr %51, i64 2
  %53 = getelementptr inbounds nuw %struct.NormalizeLocal, ptr %52, i32 0, i32 0
  store i16 %47, ptr %53, align 4, !tbaa !71
  call void @llvm.lifetime.start.p0(i64 4, ptr %9) #6
  store i32 0, ptr %9, align 4, !tbaa !38
  br label %54

54:                                               ; preds = %296, %4
  %55 = load i32, ptr %9, align 4, !tbaa !38
  %56 = load ptr, ptr %6, align 8, !tbaa !26
  %57 = getelementptr inbounds nuw %struct.AVFrame, ptr %56, i32 0, i32 4
  %58 = load i32, ptr %57, align 4, !tbaa !85
  %59 = icmp slt i32 %55, %58
  br i1 %59, label %61, label %60

60:                                               ; preds = %54
  store i32 2, ptr %10, align 4
  call void @llvm.lifetime.end.p0(i64 4, ptr %9) #6
  br label %299

61:                                               ; preds = %54
  call void @llvm.lifetime.start.p0(i64 8, ptr %11) #6
  %62 = load ptr, ptr %6, align 8, !tbaa !26
  %63 = getelementptr inbounds nuw %struct.AVFrame, ptr %62, i32 0, i32 0
  %64 = getelementptr inbounds [8 x ptr], ptr %63, i64 0, i64 2
  %65 = load ptr, ptr %64, align 8, !tbaa !84
  %66 = load i32, ptr %9, align 4, !tbaa !38
  %67 = load ptr, ptr %6, align 8, !tbaa !26
  %68 = getelementptr inbounds nuw %struct.AVFrame, ptr %67, i32 0, i32 1
  %69 = getelementptr inbounds [8 x i32], ptr %68, i64 0, i64 2
  %70 = load i32, ptr %69, align 8, !tbaa !38
  %71 = mul nsw i32 %66, %70
  %72 = sext i32 %71 to i64
  %73 = getelementptr inbounds i8, ptr %65, i64 %72
  store ptr %73, ptr %11, align 8, !tbaa !84
  call void @llvm.lifetime.start.p0(i64 8, ptr %12) #6
  %74 = load ptr, ptr %6, align 8, !tbaa !26
  %75 = getelementptr inbounds nuw %struct.AVFrame, ptr %74, i32 0, i32 0
  %76 = getelementptr inbounds [8 x ptr], ptr %75, i64 0, i64 0
  %77 = load ptr, ptr %76, align 8, !tbaa !84
  %78 = load i32, ptr %9, align 4, !tbaa !38
  %79 = load ptr, ptr %6, align 8, !tbaa !26
  %80 = getelementptr inbounds nuw %struct.AVFrame, ptr %79, i32 0, i32 1
  %81 = getelementptr inbounds [8 x i32], ptr %80, i64 0, i64 0
  %82 = load i32, ptr %81, align 8, !tbaa !38
  %83 = mul nsw i32 %78, %82
  %84 = sext i32 %83 to i64
  %85 = getelementptr inbounds i8, ptr %77, i64 %84
  store ptr %85, ptr %12, align 8, !tbaa !84
  call void @llvm.lifetime.start.p0(i64 8, ptr %13) #6
  %86 = load ptr, ptr %6, align 8, !tbaa !26
  %87 = getelementptr inbounds nuw %struct.AVFrame, ptr %86, i32 0, i32 0
  %88 = getelementptr inbounds [8 x ptr], ptr %87, i64 0, i64 1
  %89 = load ptr, ptr %88, align 8, !tbaa !84
  %90 = load i32, ptr %9, align 4, !tbaa !38
  %91 = load ptr, ptr %6, align 8, !tbaa !26
  %92 = getelementptr inbounds nuw %struct.AVFrame, ptr %91, i32 0, i32 1
  %93 = getelementptr inbounds [8 x i32], ptr %92, i64 0, i64 1
  %94 = load i32, ptr %93, align 4, !tbaa !38
  %95 = mul nsw i32 %90, %94
  %96 = sext i32 %95 to i64
  %97 = getelementptr inbounds i8, ptr %89, i64 %96
  store ptr %97, ptr %13, align 8, !tbaa !84
  call void @llvm.lifetime.start.p0(i64 4, ptr %14) #6
  store i32 0, ptr %14, align 4, !tbaa !38
  br label %98

98:                                               ; preds = %292, %61
  %99 = load i32, ptr %14, align 4, !tbaa !38
  %100 = load ptr, ptr %6, align 8, !tbaa !26
  %101 = getelementptr inbounds nuw %struct.AVFrame, ptr %100, i32 0, i32 3
  %102 = load i32, ptr %101, align 8, !tbaa !90
  %103 = icmp slt i32 %99, %102
  br i1 %103, label %105, label %104

104:                                              ; preds = %98
  store i32 5, ptr %10, align 4
  call void @llvm.lifetime.end.p0(i64 4, ptr %14) #6
  br label %295

105:                                              ; preds = %98
  %106 = load ptr, ptr %7, align 8, !tbaa !82
  %107 = getelementptr inbounds %struct.NormalizeLocal, ptr %106, i64 0
  %108 = getelementptr inbounds nuw %struct.NormalizeLocal, ptr %107, i32 0, i32 0
  %109 = load i16, ptr %108, align 4, !tbaa !71
  %110 = zext i16 %109 to i32
  %111 = load ptr, ptr %11, align 8, !tbaa !84
  %112 = load i32, ptr %14, align 4, !tbaa !38
  %113 = sext i32 %112 to i64
  %114 = getelementptr inbounds i8, ptr %111, i64 %113
  %115 = load i8, ptr %114, align 1, !tbaa !60
  %116 = zext i8 %115 to i32
  %117 = icmp sgt i32 %110, %116
  br i1 %117, label %118, label %125

118:                                              ; preds = %105
  %119 = load ptr, ptr %11, align 8, !tbaa !84
  %120 = load i32, ptr %14, align 4, !tbaa !38
  %121 = sext i32 %120 to i64
  %122 = getelementptr inbounds i8, ptr %119, i64 %121
  %123 = load i8, ptr %122, align 1, !tbaa !60
  %124 = zext i8 %123 to i32
  br label %131

125:                                              ; preds = %105
  %126 = load ptr, ptr %7, align 8, !tbaa !82
  %127 = getelementptr inbounds %struct.NormalizeLocal, ptr %126, i64 0
  %128 = getelementptr inbounds nuw %struct.NormalizeLocal, ptr %127, i32 0, i32 0
  %129 = load i16, ptr %128, align 4, !tbaa !71
  %130 = zext i16 %129 to i32
  br label %131

131:                                              ; preds = %125, %118
  %132 = phi i32 [ %124, %118 ], [ %130, %125 ]
  %133 = trunc i32 %132 to i16
  %134 = load ptr, ptr %7, align 8, !tbaa !82
  %135 = getelementptr inbounds %struct.NormalizeLocal, ptr %134, i64 0
  %136 = getelementptr inbounds nuw %struct.NormalizeLocal, ptr %135, i32 0, i32 0
  store i16 %133, ptr %136, align 4, !tbaa !71
  %137 = load ptr, ptr %8, align 8, !tbaa !82
  %138 = getelementptr inbounds %struct.NormalizeLocal, ptr %137, i64 0
  %139 = getelementptr inbounds nuw %struct.NormalizeLocal, ptr %138, i32 0, i32 0
  %140 = load i16, ptr %139, align 4, !tbaa !71
  %141 = zext i16 %140 to i32
  %142 = load ptr, ptr %11, align 8, !tbaa !84
  %143 = load i32, ptr %14, align 4, !tbaa !38
  %144 = sext i32 %143 to i64
  %145 = getelementptr inbounds i8, ptr %142, i64 %144
  %146 = load i8, ptr %145, align 1, !tbaa !60
  %147 = zext i8 %146 to i32
  %148 = icmp sgt i32 %141, %147
  br i1 %148, label %149, label %155

149:                                              ; preds = %131
  %150 = load ptr, ptr %8, align 8, !tbaa !82
  %151 = getelementptr inbounds %struct.NormalizeLocal, ptr %150, i64 0
  %152 = getelementptr inbounds nuw %struct.NormalizeLocal, ptr %151, i32 0, i32 0
  %153 = load i16, ptr %152, align 4, !tbaa !71
  %154 = zext i16 %153 to i32
  br label %162

155:                                              ; preds = %131
  %156 = load ptr, ptr %11, align 8, !tbaa !84
  %157 = load i32, ptr %14, align 4, !tbaa !38
  %158 = sext i32 %157 to i64
  %159 = getelementptr inbounds i8, ptr %156, i64 %158
  %160 = load i8, ptr %159, align 1, !tbaa !60
  %161 = zext i8 %160 to i32
  br label %162

162:                                              ; preds = %155, %149
  %163 = phi i32 [ %154, %149 ], [ %161, %155 ]
  %164 = trunc i32 %163 to i16
  %165 = load ptr, ptr %8, align 8, !tbaa !82
  %166 = getelementptr inbounds %struct.NormalizeLocal, ptr %165, i64 0
  %167 = getelementptr inbounds nuw %struct.NormalizeLocal, ptr %166, i32 0, i32 0
  store i16 %164, ptr %167, align 4, !tbaa !71
  %168 = load ptr, ptr %7, align 8, !tbaa !82
  %169 = getelementptr inbounds %struct.NormalizeLocal, ptr %168, i64 1
  %170 = getelementptr inbounds nuw %struct.NormalizeLocal, ptr %169, i32 0, i32 0
  %171 = load i16, ptr %170, align 4, !tbaa !71
  %172 = zext i16 %171 to i32
  %173 = load ptr, ptr %12, align 8, !tbaa !84
  %174 = load i32, ptr %14, align 4, !tbaa !38
  %175 = sext i32 %174 to i64
  %176 = getelementptr inbounds i8, ptr %173, i64 %175
  %177 = load i8, ptr %176, align 1, !tbaa !60
  %178 = zext i8 %177 to i32
  %179 = icmp sgt i32 %172, %178
  br i1 %179, label %180, label %187

180:                                              ; preds = %162
  %181 = load ptr, ptr %12, align 8, !tbaa !84
  %182 = load i32, ptr %14, align 4, !tbaa !38
  %183 = sext i32 %182 to i64
  %184 = getelementptr inbounds i8, ptr %181, i64 %183
  %185 = load i8, ptr %184, align 1, !tbaa !60
  %186 = zext i8 %185 to i32
  br label %193

187:                                              ; preds = %162
  %188 = load ptr, ptr %7, align 8, !tbaa !82
  %189 = getelementptr inbounds %struct.NormalizeLocal, ptr %188, i64 1
  %190 = getelementptr inbounds nuw %struct.NormalizeLocal, ptr %189, i32 0, i32 0
  %191 = load i16, ptr %190, align 4, !tbaa !71
  %192 = zext i16 %191 to i32
  br label %193

193:                                              ; preds = %187, %180
  %194 = phi i32 [ %186, %180 ], [ %192, %187 ]
  %195 = trunc i32 %194 to i16
  %196 = load ptr, ptr %7, align 8, !tbaa !82
  %197 = getelementptr inbounds %struct.NormalizeLocal, ptr %196, i64 1
  %198 = getelementptr inbounds nuw %struct.NormalizeLocal, ptr %197, i32 0, i32 0
  store i16 %195, ptr %198, align 4, !tbaa !71
  %199 = load ptr, ptr %8, align 8, !tbaa !82
  %200 = getelementptr inbounds %struct.NormalizeLocal, ptr %199, i64 1
  %201 = getelementptr inbounds nuw %struct.NormalizeLocal, ptr %200, i32 0, i32 0
  %202 = load i16, ptr %201, align 4, !tbaa !71
  %203 = zext i16 %202 to i32
  %204 = load ptr, ptr %12, align 8, !tbaa !84
  %205 = load i32, ptr %14, align 4, !tbaa !38
  %206 = sext i32 %205 to i64
  %207 = getelementptr inbounds i8, ptr %204, i64 %206
  %208 = load i8, ptr %207, align 1, !tbaa !60
  %209 = zext i8 %208 to i32
  %210 = icmp sgt i32 %203, %209
  br i1 %210, label %211, label %217

211:                                              ; preds = %193
  %212 = load ptr, ptr %8, align 8, !tbaa !82
  %213 = getelementptr inbounds %struct.NormalizeLocal, ptr %212, i64 1
  %214 = getelementptr inbounds nuw %struct.NormalizeLocal, ptr %213, i32 0, i32 0
  %215 = load i16, ptr %214, align 4, !tbaa !71
  %216 = zext i16 %215 to i32
  br label %224

217:                                              ; preds = %193
  %218 = load ptr, ptr %12, align 8, !tbaa !84
  %219 = load i32, ptr %14, align 4, !tbaa !38
  %220 = sext i32 %219 to i64
  %221 = getelementptr inbounds i8, ptr %218, i64 %220
  %222 = load i8, ptr %221, align 1, !tbaa !60
  %223 = zext i8 %222 to i32
  br label %224

224:                                              ; preds = %217, %211
  %225 = phi i32 [ %216, %211 ], [ %223, %217 ]
  %226 = trunc i32 %225 to i16
  %227 = load ptr, ptr %8, align 8, !tbaa !82
  %228 = getelementptr inbounds %struct.NormalizeLocal, ptr %227, i64 1
  %229 = getelementptr inbounds nuw %struct.NormalizeLocal, ptr %228, i32 0, i32 0
  store i16 %226, ptr %229, align 4, !tbaa !71
  %230 = load ptr, ptr %7, align 8, !tbaa !82
  %231 = getelementptr inbounds %struct.NormalizeLocal, ptr %230, i64 2
  %232 = getelementptr inbounds nuw %struct.NormalizeLocal, ptr %231, i32 0, i32 0
  %233 = load i16, ptr %232, align 4, !tbaa !71
  %234 = zext i16 %233 to i32
  %235 = load ptr, ptr %13, align 8, !tbaa !84
  %236 = load i32, ptr %14, align 4, !tbaa !38
  %237 = sext i32 %236 to i64
  %238 = getelementptr inbounds i8, ptr %235, i64 %237
  %239 = load i8, ptr %238, align 1, !tbaa !60
  %240 = zext i8 %239 to i32
  %241 = icmp sgt i32 %234, %240
  br i1 %241, label %242, label %249

242:                                              ; preds = %224
  %243 = load ptr, ptr %13, align 8, !tbaa !84
  %244 = load i32, ptr %14, align 4, !tbaa !38
  %245 = sext i32 %244 to i64
  %246 = getelementptr inbounds i8, ptr %243, i64 %245
  %247 = load i8, ptr %246, align 1, !tbaa !60
  %248 = zext i8 %247 to i32
  br label %255

249:                                              ; preds = %224
  %250 = load ptr, ptr %7, align 8, !tbaa !82
  %251 = getelementptr inbounds %struct.NormalizeLocal, ptr %250, i64 2
  %252 = getelementptr inbounds nuw %struct.NormalizeLocal, ptr %251, i32 0, i32 0
  %253 = load i16, ptr %252, align 4, !tbaa !71
  %254 = zext i16 %253 to i32
  br label %255

255:                                              ; preds = %249, %242
  %256 = phi i32 [ %248, %242 ], [ %254, %249 ]
  %257 = trunc i32 %256 to i16
  %258 = load ptr, ptr %7, align 8, !tbaa !82
  %259 = getelementptr inbounds %struct.NormalizeLocal, ptr %258, i64 2
  %260 = getelementptr inbounds nuw %struct.NormalizeLocal, ptr %259, i32 0, i32 0
  store i16 %257, ptr %260, align 4, !tbaa !71
  %261 = load ptr, ptr %8, align 8, !tbaa !82
  %262 = getelementptr inbounds %struct.NormalizeLocal, ptr %261, i64 2
  %263 = getelementptr inbounds nuw %struct.NormalizeLocal, ptr %262, i32 0, i32 0
  %264 = load i16, ptr %263, align 4, !tbaa !71
  %265 = zext i16 %264 to i32
  %266 = load ptr, ptr %13, align 8, !tbaa !84
  %267 = load i32, ptr %14, align 4, !tbaa !38
  %268 = sext i32 %267 to i64
  %269 = getelementptr inbounds i8, ptr %266, i64 %268
  %270 = load i8, ptr %269, align 1, !tbaa !60
  %271 = zext i8 %270 to i32
  %272 = icmp sgt i32 %265, %271
  br i1 %272, label %273, label %279

273:                                              ; preds = %255
  %274 = load ptr, ptr %8, align 8, !tbaa !82
  %275 = getelementptr inbounds %struct.NormalizeLocal, ptr %274, i64 2
  %276 = getelementptr inbounds nuw %struct.NormalizeLocal, ptr %275, i32 0, i32 0
  %277 = load i16, ptr %276, align 4, !tbaa !71
  %278 = zext i16 %277 to i32
  br label %286

279:                                              ; preds = %255
  %280 = load ptr, ptr %13, align 8, !tbaa !84
  %281 = load i32, ptr %14, align 4, !tbaa !38
  %282 = sext i32 %281 to i64
  %283 = getelementptr inbounds i8, ptr %280, i64 %282
  %284 = load i8, ptr %283, align 1, !tbaa !60
  %285 = zext i8 %284 to i32
  br label %286

286:                                              ; preds = %279, %273
  %287 = phi i32 [ %278, %273 ], [ %285, %279 ]
  %288 = trunc i32 %287 to i16
  %289 = load ptr, ptr %8, align 8, !tbaa !82
  %290 = getelementptr inbounds %struct.NormalizeLocal, ptr %289, i64 2
  %291 = getelementptr inbounds nuw %struct.NormalizeLocal, ptr %290, i32 0, i32 0
  store i16 %288, ptr %291, align 4, !tbaa !71
  br label %292

292:                                              ; preds = %286
  %293 = load i32, ptr %14, align 4, !tbaa !38
  %294 = add nsw i32 %293, 1
  store i32 %294, ptr %14, align 4, !tbaa !38
  br label %98, !llvm.loop !91

295:                                              ; preds = %104
  call void @llvm.lifetime.end.p0(i64 8, ptr %13) #6
  call void @llvm.lifetime.end.p0(i64 8, ptr %12) #6
  call void @llvm.lifetime.end.p0(i64 8, ptr %11) #6
  br label %296

296:                                              ; preds = %295
  %297 = load i32, ptr %9, align 4, !tbaa !38
  %298 = add nsw i32 %297, 1
  store i32 %298, ptr %9, align 4, !tbaa !38
  br label %54, !llvm.loop !92

299:                                              ; preds = %60
  ret void
}