; Function Attrs: nofree norecurse nosync nounwind memory(read, argmem: readwrite, inaccessiblemem: none) uwtable
define internal void @find_min_max_planar(ptr readnone captures(none) %0, ptr noundef readonly captures(none) %1, ptr noundef captures(none) initializes((0, 2), (12, 14), (24, 26)) %2, ptr noundef captures(none) initializes((0, 2), (12, 14), (24, 26)) %3) #5 {
  %5 = getelementptr inbounds nuw i8, ptr %1, i64 16
  %6 = load ptr, ptr %5, align 8, !tbaa !76
  %7 = load i8, ptr %6, align 1, !tbaa !73
  %8 = zext i8 %7 to i16
  store i16 %8, ptr %3, align 4, !tbaa !51
  store i16 %8, ptr %2, align 4, !tbaa !51
  %9 = load ptr, ptr %1, align 8, !tbaa !76
  %10 = load i8, ptr %9, align 1, !tbaa !73
  %11 = zext i8 %10 to i16
  %12 = getelementptr inbounds nuw i8, ptr %3, i64 12
  store i16 %11, ptr %12, align 4, !tbaa !51
  %13 = getelementptr inbounds nuw i8, ptr %2, i64 12
  store i16 %11, ptr %13, align 4, !tbaa !51
  %14 = getelementptr inbounds nuw i8, ptr %1, i64 8
  %15 = load ptr, ptr %14, align 8, !tbaa !76
  %16 = load i8, ptr %15, align 1, !tbaa !73
  %17 = zext i8 %16 to i16
  %18 = getelementptr inbounds nuw i8, ptr %3, i64 24
  store i16 %17, ptr %18, align 4, !tbaa !51
  %19 = getelementptr inbounds nuw i8, ptr %2, i64 24
  store i16 %17, ptr %19, align 4, !tbaa !51
  %20 = getelementptr inbounds nuw i8, ptr %1, i64 108
  %21 = load i32, ptr %20, align 4, !tbaa !77
  %22 = icmp sgt i32 %21, 0
  br i1 %22, label %.lr.ph81, label %._crit_edge82

.lr.ph81:                                         ; preds = %4
  %23 = getelementptr inbounds nuw i8, ptr %1, i64 104
  %24 = load i32, ptr %23, align 8, !tbaa !82
  %25 = icmp sgt i32 %24, 0
  br i1 %25, label %.lr.ph.us.preheader, label %._crit_edge82

.lr.ph.us.preheader:                              ; preds = %.lr.ph81
  %26 = getelementptr inbounds nuw i8, ptr %1, i64 68
  %27 = load i32, ptr %26, align 4, !tbaa !57
  %28 = getelementptr inbounds nuw i8, ptr %1, i64 64
  %29 = load i32, ptr %28, align 8, !tbaa !57
  %30 = getelementptr inbounds nuw i8, ptr %1, i64 72
  %31 = load i32, ptr %30, align 8, !tbaa !57
  %32 = sext i32 %31 to i64
  %33 = sext i32 %29 to i64
  %34 = sext i32 %27 to i64
  %wide.trip.count88 = zext nneg i32 %21 to i64
  %wide.trip.count = zext nneg i32 %24 to i64
  br label %.lr.ph.us

.lr.ph.us:                                        ; preds = %.lr.ph.us.preheader, %._crit_edge.us
  %indvars.iv85 = phi i64 [ 0, %.lr.ph.us.preheader ], [ %indvars.iv.next86, %._crit_edge.us ]
  %35 = mul nsw i64 %indvars.iv85, %32
  %36 = getelementptr inbounds i8, ptr %6, i64 %35
  %37 = mul nsw i64 %indvars.iv85, %33
  %38 = getelementptr inbounds i8, ptr %9, i64 %37
  %39 = mul nsw i64 %indvars.iv85, %34
  %40 = getelementptr inbounds i8, ptr %15, i64 %39
  br label %41

41:                                               ; preds = %.lr.ph.us, %41
  %indvars.iv = phi i64 [ 0, %.lr.ph.us ], [ %indvars.iv.next, %41 ]
  %42 = load i16, ptr %2, align 4, !tbaa !51
  %43 = getelementptr inbounds nuw i8, ptr %36, i64 %indvars.iv
  %44 = load i8, ptr %43, align 1, !tbaa !73
  %45 = zext i8 %44 to i16
  %46 = tail call i16 @llvm.umin.i16(i16 %42, i16 %45)
  store i16 %46, ptr %2, align 4, !tbaa !51
  %47 = load i16, ptr %3, align 4, !tbaa !51
  %48 = load i8, ptr %43, align 1, !tbaa !73
  %49 = zext i8 %48 to i16
  %50 = tail call i16 @llvm.umax.i16(i16 %47, i16 %49)
  store i16 %50, ptr %3, align 4, !tbaa !51
  %51 = load i16, ptr %13, align 4, !tbaa !51
  %52 = getelementptr inbounds nuw i8, ptr %38, i64 %indvars.iv
  %53 = load i8, ptr %52, align 1, !tbaa !73
  %54 = zext i8 %53 to i16
  %55 = tail call i16 @llvm.umin.i16(i16 %51, i16 %54)
  store i16 %55, ptr %13, align 4, !tbaa !51
  %56 = load i16, ptr %12, align 4, !tbaa !51
  %57 = load i8, ptr %52, align 1, !tbaa !73
  %58 = zext i8 %57 to i16
  %59 = tail call i16 @llvm.umax.i16(i16 %56, i16 %58)
  store i16 %59, ptr %12, align 4, !tbaa !51
  %60 = load i16, ptr %19, align 4, !tbaa !51
  %61 = getelementptr inbounds nuw i8, ptr %40, i64 %indvars.iv
  %62 = load i8, ptr %61, align 1, !tbaa !73
  %63 = zext i8 %62 to i16
  %64 = tail call i16 @llvm.umin.i16(i16 %60, i16 %63)
  store i16 %64, ptr %19, align 4, !tbaa !51
  %65 = load i16, ptr %18, align 4, !tbaa !51
  %66 = load i8, ptr %61, align 1, !tbaa !73
  %67 = zext i8 %66 to i16
  %68 = tail call i16 @llvm.umax.i16(i16 %65, i16 %67)
  store i16 %68, ptr %18, align 4, !tbaa !51
  %indvars.iv.next = add nuw nsw i64 %indvars.iv, 1
  %exitcond.not = icmp eq i64 %indvars.iv.next, %wide.trip.count
  br i1 %exitcond.not, label %._crit_edge.us, label %41, !llvm.loop !83

._crit_edge.us:                                   ; preds = %41
  %indvars.iv.next86 = add nuw nsw i64 %indvars.iv85, 1
  %exitcond89.not = icmp eq i64 %indvars.iv.next86, %wide.trip.count88
  br i1 %exitcond89.not, label %._crit_edge82, label %.lr.ph.us, !llvm.loop !84

._crit_edge82:                                    ; preds = %._crit_edge.us, %.lr.ph81, %4
  ret void
}